target datalayout = "e-m:e-p270:32:32-p271:32:32-p272:64:64-i64:64-i128:128-f80:128-n8:16:32:64-S128"
target triple = "x86_64-pc-linux-gnu"

%struct.ggml_backend_cpu_device_context = type { %"class.std::__cxx11::basic_string" }
%"class.std::__cxx11::basic_string" = type { %"struct.std::__cxx11::basic_string<char>::_Alloc_hider", i64, %union.anon }
%"struct.std::__cxx11::basic_string<char>::_Alloc_hider" = type { ptr }
%union.anon = type { i64, [8 x i8] }
%struct.ggml_backend_device = type { %struct.ggml_backend_device_i, ptr, ptr }
%struct.ggml_backend_device_i = type { ptr, ptr, ptr, ptr, ptr, ptr, ptr, ptr, ptr, ptr, ptr, ptr, ptr, ptr, ptr }

@__dso_handle = external hidden global i8
@.str.2 = private unnamed_addr constant [128 x i8] c"generated/home/dtcxzyw/WorkSpace/Projects/compilers/llvm-opt-benchmark/bench/llama.cpp/llama.cpp/ggml/src/ggml-cpu/ggml-cpu.cpp\00", align 1
@.str.3 = private unnamed_addr constant [23 x i8] c"GGML_ASSERT(%s) failed\00", align 1
@.str.5 = private unnamed_addr constant [11 x i8] c"index == 0\00", align 1
@_ZZL31ggml_backend_cpu_reg_get_deviceP16ggml_backend_regmE3ctx = internal global %struct.ggml_backend_cpu_device_context zeroinitializer, align 8
@_ZGVZL31ggml_backend_cpu_reg_get_deviceP16ggml_backend_regmE3ctx = internal global i64 0, align 8
@_ZZL31ggml_backend_cpu_reg_get_deviceP16ggml_backend_regmE23ggml_backend_cpu_device = internal global %struct.ggml_backend_device zeroinitializer, align 8
@_ZGVZL31ggml_backend_cpu_reg_get_deviceP16ggml_backend_regmE23ggml_backend_cpu_device = internal global i64 0, align 8

; Function Attrs: mustprogress uwtable
define internal noundef ptr @_ZL31ggml_backend_cpu_reg_get_deviceP16ggml_backend_regm(ptr noundef %0, i64 noundef %1) #0 personality ptr @__gxx_personality_v0 {
  %3 = alloca ptr, align 8
  %4 = alloca i64, align 8
  %5 = alloca ptr, align 8
  %6 = alloca i32, align 4
  store ptr %0, ptr %3, align 8, !tbaa !89
  store i64 %1, ptr %4, align 8, !tbaa !30
  %7 = load i64, ptr %4, align 8, !tbaa !30
  %8 = icmp eq i64 %7, 0
  br i1 %8, label %10, label %9

9:                                                ; preds = %2
  call void (ptr, i32, ptr, ...) @ggml_abort(ptr noundef @.str.2, i32 noundef 474, ptr noundef @.str.3, ptr noundef @.str.5) #16
  unreachable

10:                                               ; preds = %2
  %11 = load atomic i8, ptr @_ZGVZL31ggml_backend_cpu_reg_get_deviceP16ggml_backend_regmE3ctx acquire, align 8
  %12 = icmp eq i8 %11, 0
  br i1 %12, label %13, label %19, !prof !4

13:                                               ; preds = %10
  %14 = call i32 @__cxa_guard_acquire(ptr @_ZGVZL31ggml_backend_cpu_reg_get_deviceP16ggml_backend_regmE3ctx) #1
  %15 = icmp ne i32 %14, 0
  br i1 %15, label %16, label %19

16:                                               ; preds = %13
  invoke void @_ZN31ggml_backend_cpu_device_contextC2Ev(ptr noundef nonnull align 8 dereferenceable(32) @_ZZL31ggml_backend_cpu_reg_get_deviceP16ggml_backend_regmE3ctx)
          to label %17 unwind label %28

17:                                               ; preds = %16
  %18 = call i32 @__cxa_atexit(ptr @_ZN31ggml_backend_cpu_device_contextD2Ev, ptr @_ZZL31ggml_backend_cpu_reg_get_deviceP16ggml_backend_regmE3ctx, ptr @__dso_handle) #1
  call void @__cxa_guard_release(ptr @_ZGVZL31ggml_backend_cpu_reg_get_deviceP16ggml_backend_regmE3ctx) #1
  br label %19

19:                                               ; preds = %17, %13, %10
  %20 = load atomic i8, ptr @_ZGVZL31ggml_backend_cpu_reg_get_deviceP16ggml_backend_regmE23ggml_backend_cpu_device acquire, align 8
  %21 = icmp eq i8 %20, 0
  br i1 %21, label %22, label %27, !prof !4

22:                                               ; preds = %19
  %23 = call i32 @__cxa_guard_acquire(ptr @_ZGVZL31ggml_backend_cpu_reg_get_deviceP16ggml_backend_regmE23ggml_backend_cpu_device) #1
  %24 = icmp ne i32 %23, 0
  br i1 %24, label %25, label %27

25:                                               ; preds = %22
  call void @llvm.memcpy.p0.p0.i64(ptr align 8 @_ZZL31ggml_backend_cpu_reg_get_deviceP16ggml_backend_regmE23ggml_backend_cpu_device, ptr align 8 @_ZL25ggml_backend_cpu_device_i, i64 120, i1 false), !tbaa.struct !91
  %26 = load ptr, ptr %3, align 8, !tbaa !89
  store ptr %26, ptr getelementptr inbounds nuw (%struct.ggml_backend_device, ptr @_ZZL31ggml_backend_cpu_reg_get_deviceP16ggml_backend_regmE23ggml_backend_cpu_device, i32 0, i32 1), align 8, !tbaa !92
  store ptr @_ZZL31ggml_backend_cpu_reg_get_deviceP16ggml_backend_regmE3ctx, ptr getelementptr inbounds nuw (%struct.ggml_backend_device, ptr @_ZZL31ggml_backend_cpu_reg_get_deviceP16ggml_backend_regmE23ggml_backend_cpu_device, i32 0, i32 2), align 8, !tbaa !95
  call void @__cxa_guard_release(ptr @_ZGVZL31ggml_backend_cpu_reg_get_deviceP16ggml_backend_regmE23ggml_backend_cpu_device) #1
  br label %27

27:                                               ; preds = %25, %22, %19
  ret ptr @_ZZL31ggml_backend_cpu_reg_get_deviceP16ggml_backend_regmE23ggml_backend_cpu_device

28:                                               ; preds = %16
  %29 = landingpad { ptr, i32 }
          cleanup
  %30 = extractvalue { ptr, i32 } %29, 0
  store ptr %30, ptr %5, align 8
  %31 = extractvalue { ptr, i32 } %29, 1
  store i32 %31, ptr %6, align 4
  call void @__cxa_guard_abort(ptr @_ZGVZL31ggml_backend_cpu_reg_get_deviceP16ggml_backend_regmE3ctx) #1
  br label %32

32:                                               ; preds = %28
  %33 = load ptr, ptr %5, align 8
  %34 = load i32, ptr %6, align 4
  %35 = insertvalue { ptr, i32 } poison, ptr %33, 0
  %36 = insertvalue { ptr, i32 } %35, i32 %34, 1
  resume { ptr, i32 } %36
}