; Function Attrs: mustprogress uwtable
define internal noundef nonnull ptr @_ZL31ggml_backend_cpu_reg_get_deviceP16ggml_backend_regm(ptr noundef %0, i64 noundef %1) #0 personality ptr @__gxx_personality_v0 {
  %3 = icmp eq i64 %1, 0
  br i1 %3, label %5, label %4

4:                                                ; preds = %2
  tail call void (ptr, i32, ptr, ...) @ggml_abort(ptr noundef nonnull @.str.2, i32 noundef 474, ptr noundef nonnull @.str.3, ptr noundef nonnull @.str.5) #26
  unreachable

5:                                                ; preds = %2
  %6 = load atomic i8, ptr @_ZGVZL31ggml_backend_cpu_reg_get_deviceP16ggml_backend_regmE3ctx acquire, align 8
  %7 = icmp eq i8 %6, 0
  br i1 %7, label %8, label %13, !prof !4

8:                                                ; preds = %5
  %9 = tail call i32 @__cxa_guard_acquire(ptr nonnull @_ZGVZL31ggml_backend_cpu_reg_get_deviceP16ggml_backend_regmE3ctx) #25
  %.not = icmp eq i32 %9, 0
  br i1 %.not, label %13, label %10

10:                                               ; preds = %8
  invoke void @_ZN31ggml_backend_cpu_device_contextC2Ev(ptr noundef nonnull align 8 dereferenceable(32) @_ZZL31ggml_backend_cpu_reg_get_deviceP16ggml_backend_regmE3ctx)
          to label %11 unwind label %20

11:                                               ; preds = %10
  %12 = tail call i32 @__cxa_atexit(ptr nonnull @_ZN31ggml_backend_cpu_device_contextD2Ev, ptr nonnull @_ZZL31ggml_backend_cpu_reg_get_deviceP16ggml_backend_regmE3ctx, ptr nonnull @__dso_handle) #25
  tail call void @__cxa_guard_release(ptr nonnull @_ZGVZL31ggml_backend_cpu_reg_get_deviceP16ggml_backend_regmE3ctx) #25
  br label %13

13:                                               ; preds = %11, %8, %5
  %14 = load atomic i8, ptr @_ZGVZL31ggml_backend_cpu_reg_get_deviceP16ggml_backend_regmE23ggml_backend_cpu_device acquire, align 8
  %15 = icmp eq i8 %14, 0
  br i1 %15, label %16, label %19, !prof !4

16:                                               ; preds = %13
  %17 = tail call i32 @__cxa_guard_acquire(ptr nonnull @_ZGVZL31ggml_backend_cpu_reg_get_deviceP16ggml_backend_regmE23ggml_backend_cpu_device) #25
  %.not3 = icmp eq i32 %17, 0
  br i1 %.not3, label %19, label %18

18:                                               ; preds = %16
  tail call void @llvm.memcpy.p0.p0.i64(ptr noundef nonnull align 8 dereferenceable(120) @_ZZL31ggml_backend_cpu_reg_get_deviceP16ggml_backend_regmE23ggml_backend_cpu_device, ptr noundef nonnull align 8 dereferenceable(120) @_ZL25ggml_backend_cpu_device_i, i64 120, i1 false), !tbaa.struct !59
  store ptr %0, ptr getelementptr inbounds nuw (i8, ptr @_ZZL31ggml_backend_cpu_reg_get_deviceP16ggml_backend_regmE23ggml_backend_cpu_device, i64 120), align 8, !tbaa !60
  store ptr @_ZZL31ggml_backend_cpu_reg_get_deviceP16ggml_backend_regmE3ctx, ptr getelementptr inbounds nuw (i8, ptr @_ZZL31ggml_backend_cpu_reg_get_deviceP16ggml_backend_regmE23ggml_backend_cpu_device, i64 128), align 8, !tbaa !64
  tail call void @__cxa_guard_release(ptr nonnull @_ZGVZL31ggml_backend_cpu_reg_get_deviceP16ggml_backend_regmE23ggml_backend_cpu_device) #25
  br label %19

19:                                               ; preds = %18, %16, %13
  ret ptr @_ZZL31ggml_backend_cpu_reg_get_deviceP16ggml_backend_regmE23ggml_backend_cpu_device

20:                                               ; preds = %10
  %21 = landingpad { ptr, i32 }
          cleanup
  tail call void @__cxa_guard_abort(ptr nonnull @_ZGVZL31ggml_backend_cpu_reg_get_deviceP16ggml_backend_regmE3ctx) #25
  resume { ptr, i32 } %21
}